target datalayout = "e-m:e-p270:32:32-p271:32:32-p272:64:64-i64:64-i128:128-f80:128-n8:16:32:64-S128"
target triple = "x86_64-pc-linux-gnu"

%"struct.open_spiel::dou_dizhu::TrioCombParams" = type { i32, i32, i32, i32 }
%"struct.std::array" = type { [15 x i32] }

; Function Attrs: mustprogress nounwind uwtable
define linkonce_odr noundef nonnull align 4 dereferenceable(4) ptr @_ZNSt14__array_traitsIiLm15EE6_S_refERA15_Kim(ptr noundef nonnull align 4 dereferenceable(60) %0, i64 noundef %1) #4 comdat align 2 {
  %3 = alloca ptr, align 8
  %4 = alloca i64, align 8
  store ptr %0, ptr %3, align 8
  store i64 %1, ptr %4, align 8
  %5 = load ptr, ptr %3, align 8
  %6 = load i64, ptr %4, align 8
  %7 = getelementptr inbounds [15 x i32], ptr %5, i64 0, i64 %6
  ret ptr %7
}

; Function Attrs: mustprogress nounwind uwtable
define linkonce_odr noundef nonnull align 4 dereferenceable(4) ptr @_ZNSt5arrayIiLm15EEixEm(ptr noundef nonnull align 4 dereferenceable(60) %0, i64 noundef %1) #4 comdat align 2 {
  %3 = alloca ptr, align 8
  %4 = alloca i64, align 8
  store ptr %0, ptr %3, align 8
  store i64 %1, ptr %4, align 8
  %5 = load ptr, ptr %3, align 8
  %6 = getelementptr inbounds nuw %"struct.std::array", ptr %5, i32 0, i32 0
  %7 = load i64, ptr %4, align 8
  %8 = call noundef nonnull align 4 dereferenceable(4) ptr @_ZNSt14__array_traitsIiLm15EE6_S_refERA15_Kim(ptr noundef nonnull align 4 dereferenceable(60) %6, i64 noundef %7) #3
  ret ptr %8
}

; Function Attrs: mustprogress uwtable
define void @_ZN10open_spiel9dou_dizhu18SingleTrioCombHandEi(ptr dead_on_unwind noalias writable sret(%"struct.std::array") align 4 %0, i32 noundef %1) #5 {
  %3 = alloca i32, align 4
  %4 = alloca %"struct.open_spiel::dou_dizhu::TrioCombParams", align 4
  %5 = alloca i32, align 4
  %6 = alloca i32, align 4
  %7 = alloca i32, align 4
  store i32 %1, ptr %3, align 4
  call void @llvm.memset.p0.i64(ptr align 4 %0, i8 0, i64 60, i1 false)
  %8 = load i32, ptr %3, align 4
  %9 = call { i64, i64 } @_ZN10open_spiel9dou_dizhu23GetSingleTrioCombParamsEi(i32 noundef %8)
  %10 = getelementptr inbounds nuw { i64, i64 }, ptr %4, i32 0, i32 0
  %11 = extractvalue { i64, i64 } %9, 0
  store i64 %11, ptr %10, align 4
  %12 = getelementptr inbounds nuw { i64, i64 }, ptr %4, i32 0, i32 1
  %13 = extractvalue { i64, i64 } %9, 1
  store i64 %13, ptr %12, align 4
  %14 = getelementptr inbounds nuw %"struct.open_spiel::dou_dizhu::TrioCombParams", ptr %4, i32 0, i32 0
  %15 = load i32, ptr %14, align 4
  %16 = sext i32 %15 to i64
  %17 = call noundef nonnull align 4 dereferenceable(4) ptr @_ZNSt5arrayIiLm15EEixEm(ptr noundef nonnull align 4 dereferenceable(60) %0, i64 noundef %16) #3
  store i32 3, ptr %17, align 4
  %18 = getelementptr inbounds nuw %"struct.open_spiel::dou_dizhu::TrioCombParams", ptr %4, i32 0, i32 3
  %19 = load i32, ptr %18, align 4
  store i32 %19, ptr %5, align 4
  store i32 0, ptr %7, align 4
  store i32 0, ptr %6, align 4
  br label %20

20:                                               ; preds = %36, %2
  %21 = load i32, ptr %6, align 4
  %22 = icmp slt i32 %21, 15
  br i1 %22, label %23, label %39

23:                                               ; preds = %20
  %24 = load i32, ptr %6, align 4
  %25 = getelementptr inbounds nuw %"struct.open_spiel::dou_dizhu::TrioCombParams", ptr %4, i32 0, i32 0
  %26 = load i32, ptr %25, align 4
  %27 = icmp eq i32 %24, %26
  br i1 %27, label %28, label %29

28:                                               ; preds = %23
  br label %36

29:                                               ; preds = %23
  %30 = load i32, ptr %7, align 4
  %31 = add nsw i32 %30, 1
  store i32 %31, ptr %7, align 4
  %32 = load i32, ptr %5, align 4
  %33 = icmp eq i32 %30, %32
  br i1 %33, label %34, label %35

34:                                               ; preds = %29
  br label %39

35:                                               ; preds = %29
  br label %36

36:                                               ; preds = %35, %28
  %37 = load i32, ptr %6, align 4
  %38 = add nsw i32 %37, 1
  store i32 %38, ptr %6, align 4
  br label %20, !llvm.loop !23

39:                                               ; preds = %34, %20
  %40 = getelementptr inbounds nuw %"struct.open_spiel::dou_dizhu::TrioCombParams", ptr %4, i32 0, i32 2
  %41 = load i32, ptr %40, align 4
  %42 = icmp eq i32 %41, 1
  %43 = select i1 %42, i32 1, i32 2
  %44 = load i32, ptr %6, align 4
  %45 = sext i32 %44 to i64
  %46 = call noundef nonnull align 4 dereferenceable(4) ptr @_ZNSt5arrayIiLm15EEixEm(ptr noundef nonnull align 4 dereferenceable(60) %0, i64 noundef %45) #3
  store i32 %43, ptr %46, align 4
  ret void
}