; Function Attrs: mustprogress uwtable
define void @_ZN10open_spiel9dou_dizhu18SingleTrioCombHandEi(ptr dead_on_unwind noalias nocapture writable writeonly sret(%"struct.std::array") align 4 %0, i32 noundef %1) local_unnamed_addr #4 {
  tail call void @llvm.memset.p0.i64(ptr noundef nonnull align 4 dereferenceable(60) %0, i8 0, i64 60, i1 false)
  %3 = tail call { i64, i64 } @_ZN10open_spiel9dou_dizhu23GetSingleTrioCombParamsEi(i32 noundef %1)
  %4 = extractvalue { i64, i64 } %3, 0
  %.sroa.0.0.extract.trunc = trunc i64 %4 to i32
  %5 = extractvalue { i64, i64 } %3, 1
  %.sroa.5.8.extract.shift = lshr i64 %5, 32
  %.sroa.5.8.extract.trunc = trunc nuw i64 %.sroa.5.8.extract.shift to i32
  %sext = shl i64 %4, 32
  %6 = ashr exact i64 %sext, 32
  %7 = getelementptr inbounds [15 x i32], ptr %0, i64 0, i64 %6
  store i32 3, ptr %7, align 4
  br label %8

8:                                                ; preds = %2, %13
  %.011 = phi i32 [ 0, %2 ], [ %.1, %13 ]
  %.0910 = phi i32 [ 0, %2 ], [ %14, %13 ]
  %9 = icmp eq i32 %.0910, %.sroa.0.0.extract.trunc
  br i1 %9, label %13, label %10

10:                                               ; preds = %8
  %11 = add nsw i32 %.011, 1
  %12 = icmp eq i32 %.011, %.sroa.5.8.extract.trunc
  br i1 %12, label %15, label %13

13:                                               ; preds = %10, %8
  %.1 = phi i32 [ %.011, %8 ], [ %11, %10 ]
  %14 = add nuw nsw i32 %.0910, 1
  %exitcond.not = icmp eq i32 %14, 15
  br i1 %exitcond.not, label %15, label %8, !llvm.loop !26

15:                                               ; preds = %10, %13
  %.09.lcssa = phi i32 [ %.0910, %10 ], [ 15, %13 ]
  %16 = and i64 %5, 4294967295
  %17 = icmp eq i64 %16, 1
  %18 = select i1 %17, i32 1, i32 2
  %19 = zext nneg i32 %.09.lcssa to i64
  %20 = getelementptr inbounds [15 x i32], ptr %0, i64 0, i64 %19
  store i32 %18, ptr %20, align 4
  ret void
}